(dp0
S'a'
p1
ccopy_reg
_reconstructor
p2
(cmodels
Url
p3
c__builtin__
object
p4
Ntp5
Rp6
(dp7
S'short_url'
p8
g1
sS'full_url'
p9
Vwww.yahoo.com
p10
sbsS'c'
p11
g2
(g3
g4
Ntp12
Rp13
(dp14
g8
g11
sg9
Vhttp://www.packtpub.com
p15
sbsS'b'
p16
g2
(g3
g4
Ntp17
Rp18
(dp19
g8
g16
sg9
Vhttp://www.packtpub.com
p20
sbsS'e'
p21
g2
(g3
g4
Ntp22
Rp23
(dp24
g8
g21
sg9
Vhttps://www.facebook.com
p25
sbsS'd'
p26
g2
(g3
g4
Ntp27
Rp28
(dp29
g8
g26
sg9
Vhttps://www.packtpub.com
p30
sbsS'g'
p31
g2
(g3
g4
Ntp32
Rp33
(dp34
g8
g31
sg9
Vhttps://www.facebook.com
p35
sbsS'f'
p36
g2
(g3
g4
Ntp37
Rp38
(dp39
g8
g36
sg9
Vhttps://www.facebook.com
p40
sbsS'i'
p41
g2
(g3
g4
Ntp42
Rp43
(dp44
g8
g41
sg9
Vwww.facebook.com
p45
sbsS'h'
p46
g2
(g3
g4
Ntp47
Rp48
(dp49
g8
g46
sg9
Vhttp://www.facebook.com
p50
sbsS'k'
p51
g2
(g3
g4
Ntp52
Rp53
(dp54
g8
g51
sg9
Vgoogle.com
p55
sbsS'j'
p56
g2
(g3
g4
Ntp57
Rp58
(dp59
g8
g56
sg9
Vwww.facebook.com
p60
sbsS'm'
p61
g2
(g3
g4
Ntp62
Rp63
(dp64
g8
g61
sg9
Vhttps://www.facebook.com
p65
sbsS'l'
p66
g2
(g3
g4
Ntp67
Rp68
(dp69
g8
g66
sg9
Vhttps://www.facebook.com
p70
sbs.